; Function Attrs: nounwind uwtable
define noundef i32 @SHA224_Update(ptr noundef %0, ptr noundef %1, i64 noundef %2) local_unnamed_addr #2 {
  %4 = icmp eq i64 %2, 0
  br i1 %4, label %SHA256_Update.exit, label %._crit_edge.i

._crit_edge.i:                                    ; preds = %3
  %5 = getelementptr inbounds nuw i8, ptr %0, i64 32
  %6 = load i32, ptr %5, align 4, !tbaa !9
  %7 = trunc i64 %2 to i32
  %8 = shl i32 %7, 3
  %9 = add i32 %6, %8
  %10 = icmp ult i32 %9, %6
  %11 = getelementptr inbounds nuw i8, ptr %0, i64 36
  %12 = load i32, ptr %11, align 4, !tbaa !10
  %13 = zext i1 %10 to i32
  %14 = lshr i64 %2, 29
  %15 = trunc i64 %14 to i32
  %16 = add i32 %12, %15
  %17 = add i32 %16, %13
  store i32 %17, ptr %11, align 4, !tbaa !10
  store i32 %9, ptr %5, align 4, !tbaa !9
  %18 = getelementptr inbounds nuw i8, ptr %0, i64 104
  %19 = load i32, ptr %18, align 4, !tbaa !11
  %20 = zext i32 %19 to i64
  %.not.i = icmp eq i32 %19, 0
  br i1 %.not.i, label %34, label %21

21:                                               ; preds = %._crit_edge.i
  %22 = getelementptr inbounds nuw i8, ptr %0, i64 40
  %23 = icmp ugt i64 %2, 63
  %24 = add nuw nsw i64 %2, %20
  %25 = icmp ugt i64 %24, 63
  %or.cond.i = select i1 %23, i1 true, i1 %25
  %26 = getelementptr inbounds nuw i8, ptr %22, i64 %20
  br i1 %or.cond.i, label %27, label %31

27:                                               ; preds = %21
  %28 = sub nsw i64 64, %20
  tail call void @llvm.memcpy.p0.p0.i64(ptr nonnull align 1 %26, ptr align 1 %1, i64 %28, i1 false)
  tail call void @sha256_block_data_order(ptr noundef nonnull %0, ptr noundef nonnull %22, i64 noundef 1) #5
  %29 = getelementptr inbounds nuw i8, ptr %1, i64 %28
  %30 = sub i64 %2, %28
  tail call void @llvm.memset.p0.i64(ptr noundef nonnull align 1 dereferenceable(68) %22, i8 0, i64 68, i1 false)
  br label %34

31:                                               ; preds = %21
  tail call void @llvm.memcpy.p0.p0.i64(ptr nonnull align 1 %26, ptr align 1 %1, i64 %2, i1 false)
  %32 = load i32, ptr %18, align 4, !tbaa !11
  %33 = add i32 %32, %7
  store i32 %33, ptr %18, align 4, !tbaa !11
  br label %SHA256_Update.exit

34:                                               ; preds = %27, %._crit_edge.i
  %.054.i = phi i64 [ %30, %27 ], [ %2, %._crit_edge.i ]
  %.053.i = phi ptr [ %29, %27 ], [ %1, %._crit_edge.i ]
  %.not58.i = icmp ult i64 %.054.i, 64
  br i1 %.not58.i, label %40, label %35

35:                                               ; preds = %34
  %36 = lshr i64 %.054.i, 6
  tail call void @sha256_block_data_order(ptr noundef nonnull %0, ptr noundef %.053.i, i64 noundef %36) #5
  %37 = and i64 %.054.i, -64
  %38 = getelementptr inbounds nuw i8, ptr %.053.i, i64 %37
  %39 = and i64 %.054.i, 63
  br label %40

40:                                               ; preds = %35, %34
  %.155.i = phi i64 [ %39, %35 ], [ %.054.i, %34 ]
  %.1.i = phi ptr [ %38, %35 ], [ %.053.i, %34 ]
  %.not59.i = icmp eq i64 %.155.i, 0
  br i1 %.not59.i, label %SHA256_Update.exit, label %41

41:                                               ; preds = %40
  %42 = getelementptr inbounds nuw i8, ptr %0, i64 40
  %43 = trunc nuw i64 %.155.i to i32
  store i32 %43, ptr %18, align 4, !tbaa !11
  tail call void @llvm.memcpy.p0.p0.i64(ptr nonnull align 1 %42, ptr align 1 %.1.i, i64 %.155.i, i1 false)
  br label %SHA256_Update.exit

SHA256_Update.exit:                               ; preds = %3, %31, %40, %41
  ret i32 1
}